; Function Attrs: mustprogress uwtable
define void @_ZN3gmx11toLowerCaseERKNSt7__cxx1112basic_stringIcSt11char_traitsIcESaIcEEE(ptr dead_on_unwind noalias nonnull writable sret(%"class.std::__cxx11::basic_string") align 8 %0, ptr noundef nonnull align 8 dereferenceable(32) %1) local_unnamed_addr #6 {
  tail call void @_ZNSt7__cxx1112basic_stringIcSt11char_traitsIcESaIcEEC1ERKS4_(ptr noundef nonnull align 8 dereferenceable(32) %0, ptr noundef nonnull align 8 dereferenceable(32) %1)
  %3 = tail call ptr @_ZNSt7__cxx1112basic_stringIcSt11char_traitsIcESaIcEE5beginEv(ptr noundef nonnull align 8 dereferenceable(32) %0) #22
  %4 = tail call ptr @_ZNSt7__cxx1112basic_stringIcSt11char_traitsIcESaIcEE3endEv(ptr noundef nonnull align 8 dereferenceable(32) %0) #22
  %5 = tail call ptr @_ZNSt7__cxx1112basic_stringIcSt11char_traitsIcESaIcEE5beginEv(ptr noundef nonnull align 8 dereferenceable(32) %0) #22
  %.not6.i = icmp eq ptr %3, %4
  br i1 %.not6.i, label %_ZSt9transformIN9__gnu_cxx17__normal_iteratorIPcNSt7__cxx1112basic_stringIcSt11char_traitsIcESaIcEEEEES9_PDoFiiEET0_T_SD_SC_T1_.exit, label %.lr.ph.i

.lr.ph.i:                                         ; preds = %2, %.lr.ph.i
  %.sroa.0.08.i = phi ptr [ %11, %.lr.ph.i ], [ %5, %2 ]
  %.sroa.03.07.i = phi ptr [ %10, %.lr.ph.i ], [ %3, %2 ]
  %6 = load i8, ptr %.sroa.03.07.i, align 1
  %7 = sext i8 %6 to i32
  %8 = tail call noundef i32 @tolower(i32 noundef %7) #22
  %9 = trunc i32 %8 to i8
  store i8 %9, ptr %.sroa.0.08.i, align 1
  %10 = getelementptr inbounds i8, ptr %.sroa.03.07.i, i64 1
  %11 = getelementptr inbounds i8, ptr %.sroa.0.08.i, i64 1
  %.not.i = icmp eq ptr %10, %4
  br i1 %.not.i, label %_ZSt9transformIN9__gnu_cxx17__normal_iteratorIPcNSt7__cxx1112basic_stringIcSt11char_traitsIcESaIcEEEEES9_PDoFiiEET0_T_SD_SC_T1_.exit, label %.lr.ph.i, !llvm.loop !22

_ZSt9transformIN9__gnu_cxx17__normal_iteratorIPcNSt7__cxx1112basic_stringIcSt11char_traitsIcESaIcEEEEES9_PDoFiiEET0_T_SD_SC_T1_.exit: ; preds = %.lr.ph.i, %2
  ret void
}